; Function Attrs: mustprogress uwtable
define hidden noundef i32 @_ZNK4ncnn5Layer7forwardERKNS_3MatERS1_RKNS_6OptionE(ptr noundef nonnull align 8 dereferenceable(208) %0, ptr noundef nonnull align 8 dereferenceable(72) %1, ptr noundef nonnull align 8 dereferenceable(72) %2, ptr noundef nonnull align 8 dereferenceable(64) %3) unnamed_addr #2 align 2 personality ptr @__gxx_personality_v0 {
  %5 = alloca %"class.ncnn::Mat", align 8
  %6 = getelementptr inbounds nuw i8, ptr %0, i64 9
  %7 = load i8, ptr %6, align 1, !tbaa !4, !range !25, !noundef !26
  %8 = trunc nuw i8 %7 to i1
  br i1 %8, label %9, label %_ZNK4ncnn3Mat5emptyEv.exit.thread

9:                                                ; preds = %4
  call void @llvm.lifetime.start.p0(i64 72, ptr nonnull %5) #18
  %10 = getelementptr inbounds nuw i8, ptr %3, i64 8
  %11 = load ptr, ptr %10, align 8, !tbaa !31
  call void @_ZNK4ncnn3Mat5cloneEPNS_9AllocatorE(ptr dead_on_unwind nonnull writable sret(%"class.ncnn::Mat") align 8 %5, ptr noundef nonnull align 8 dereferenceable(72) %1, ptr noundef %11)
  %12 = icmp eq ptr %2, %5
  %.phi.trans.insert = getelementptr inbounds nuw i8, ptr %5, i64 8
  %.pre = load ptr, ptr %.phi.trans.insert, align 8, !tbaa !34
  br i1 %12, label %_ZN4ncnn3MataSERKS0_.exit, label %13

13:                                               ; preds = %9
  %.not.i17 = icmp eq ptr %.pre, null
  br i1 %.not.i17, label %16, label %14

14:                                               ; preds = %13
  %15 = atomicrmw add ptr %.pre, i32 1 acq_rel, align 4
  br label %16

16:                                               ; preds = %14, %13
  %17 = getelementptr inbounds nuw i8, ptr %2, i64 8
  %18 = load ptr, ptr %17, align 8, !tbaa !34
  %.not.i.i = icmp eq ptr %18, null
  br i1 %.not.i.i, label %_ZN4ncnn3Mat7releaseEv.exit.i, label %19

19:                                               ; preds = %16
  %20 = atomicrmw add ptr %18, i32 -1 acq_rel, align 4
  %21 = icmp eq i32 %20, 1
  br i1 %21, label %22, label %_ZN4ncnn3Mat7releaseEv.exit.i

22:                                               ; preds = %19
  %23 = getelementptr inbounds nuw i8, ptr %2, i64 32
  %24 = load ptr, ptr %23, align 8, !tbaa !36
  %.not3.i.i = icmp eq ptr %24, null
  %25 = load ptr, ptr %2, align 8, !tbaa !37
  br i1 %.not3.i.i, label %30, label %26

26:                                               ; preds = %22
  %27 = load ptr, ptr %24, align 8, !tbaa !38
  %28 = getelementptr inbounds nuw i8, ptr %27, i64 24
  %29 = load ptr, ptr %28, align 8
  invoke void %29(ptr noundef nonnull align 8 dereferenceable(8) %24, ptr noundef %25)
          to label %_ZN4ncnn3Mat7releaseEv.exit.i unwind label %87

30:                                               ; preds = %22
  %.not.i18.i = icmp eq ptr %25, null
  br i1 %.not.i18.i, label %_ZN4ncnn3Mat7releaseEv.exit.i, label %31

31:                                               ; preds = %30
  call void @free(ptr noundef nonnull %25) #18
  br label %_ZN4ncnn3Mat7releaseEv.exit.i

_ZN4ncnn3Mat7releaseEv.exit.i:                    ; preds = %30, %31, %26, %19, %16
  %32 = getelementptr inbounds nuw i8, ptr %2, i64 16
  %33 = getelementptr inbounds nuw i8, ptr %2, i64 24
  %34 = getelementptr inbounds nuw i8, ptr %2, i64 40
  %35 = getelementptr inbounds nuw i8, ptr %2, i64 44
  %36 = getelementptr inbounds nuw i8, ptr %2, i64 48
  %37 = getelementptr inbounds nuw i8, ptr %2, i64 52
  %38 = getelementptr inbounds nuw i8, ptr %2, i64 56
  %39 = getelementptr inbounds nuw i8, ptr %2, i64 64
  %40 = load ptr, ptr %5, align 8, !tbaa !37
  store ptr %40, ptr %2, align 8, !tbaa !37
  %41 = load ptr, ptr %.phi.trans.insert, align 8, !tbaa !34
  store ptr %41, ptr %17, align 8, !tbaa !34
  %42 = getelementptr inbounds nuw i8, ptr %5, i64 16
  %43 = load i64, ptr %42, align 8, !tbaa !41
  store i64 %43, ptr %32, align 8, !tbaa !41
  %44 = getelementptr inbounds nuw i8, ptr %5, i64 24
  %45 = load i32, ptr %44, align 8, !tbaa !42
  store i32 %45, ptr %33, align 8, !tbaa !42
  %46 = getelementptr inbounds nuw i8, ptr %5, i64 32
  %47 = load ptr, ptr %46, align 8, !tbaa !36
  %48 = getelementptr inbounds nuw i8, ptr %2, i64 32
  store ptr %47, ptr %48, align 8, !tbaa !36
  %49 = getelementptr inbounds nuw i8, ptr %5, i64 40
  %50 = load i32, ptr %49, align 8, !tbaa !43
  store i32 %50, ptr %34, align 8, !tbaa !43
  %51 = getelementptr inbounds nuw i8, ptr %5, i64 44
  %52 = load i32, ptr %51, align 4, !tbaa !44
  store i32 %52, ptr %35, align 4, !tbaa !44
  %53 = getelementptr inbounds nuw i8, ptr %5, i64 48
  %54 = load i32, ptr %53, align 8, !tbaa !45
  store i32 %54, ptr %36, align 8, !tbaa !45
  %55 = getelementptr inbounds nuw i8, ptr %5, i64 52
  %56 = load i32, ptr %55, align 4, !tbaa !46
  store i32 %56, ptr %37, align 4, !tbaa !46
  %57 = getelementptr inbounds nuw i8, ptr %5, i64 56
  %58 = load i32, ptr %57, align 8, !tbaa !47
  store i32 %58, ptr %38, align 8, !tbaa !47
  %59 = getelementptr inbounds nuw i8, ptr %5, i64 64
  %60 = load i64, ptr %59, align 8, !tbaa !40
  store i64 %60, ptr %39, align 8, !tbaa !40
  br label %_ZN4ncnn3MataSERKS0_.exit

_ZN4ncnn3MataSERKS0_.exit:                        ; preds = %9, %_ZN4ncnn3Mat7releaseEv.exit.i
  %61 = phi ptr [ %41, %_ZN4ncnn3Mat7releaseEv.exit.i ], [ %.pre, %9 ]
  %.not.i10 = icmp eq ptr %61, null
  br i1 %.not.i10, label %_ZN4ncnn3MatD2Ev.exit, label %62

62:                                               ; preds = %_ZN4ncnn3MataSERKS0_.exit
  %63 = atomicrmw add ptr %61, i32 -1 acq_rel, align 4
  %64 = icmp eq i32 %63, 1
  br i1 %64, label %65, label %_ZN4ncnn3MatD2Ev.exit

65:                                               ; preds = %62
  %66 = getelementptr inbounds nuw i8, ptr %5, i64 32
  %67 = load ptr, ptr %66, align 8, !tbaa !36
  %.not3.i11 = icmp eq ptr %67, null
  %68 = load ptr, ptr %5, align 8, !tbaa !37
  br i1 %.not3.i11, label %73, label %69

69:                                               ; preds = %65
  %70 = load ptr, ptr %67, align 8, !tbaa !38
  %71 = getelementptr inbounds nuw i8, ptr %70, i64 24
  %72 = load ptr, ptr %71, align 8
  invoke void %72(ptr noundef nonnull align 8 dereferenceable(8) %67, ptr noundef %68)
          to label %_ZN4ncnn3MatD2Ev.exit unwind label %75

73:                                               ; preds = %65
  %.not.i14 = icmp eq ptr %68, null
  br i1 %.not.i14, label %_ZN4ncnn3MatD2Ev.exit, label %74

74:                                               ; preds = %73
  call void @free(ptr noundef nonnull %68) #18
  br label %_ZN4ncnn3MatD2Ev.exit

75:                                               ; preds = %69
  %76 = landingpad { ptr, i32 }
          catch ptr null
  %77 = extractvalue { ptr, i32 } %76, 0
  call void @__clang_call_terminate(ptr %77) #20
  unreachable

_ZN4ncnn3MatD2Ev.exit:                            ; preds = %62, %_ZN4ncnn3MataSERKS0_.exit, %69, %73, %74
  call void @llvm.lifetime.end.p0(i64 72, ptr nonnull %5) #18
  %78 = load ptr, ptr %2, align 8, !tbaa !37
  %79 = icmp eq ptr %78, null
  br i1 %79, label %_ZNK4ncnn3Mat5emptyEv.exit.thread, label %_ZNK4ncnn3Mat5emptyEv.exit

_ZNK4ncnn3Mat5emptyEv.exit:                       ; preds = %_ZN4ncnn3MatD2Ev.exit
  %80 = getelementptr inbounds nuw i8, ptr %2, i64 64
  %81 = load i64, ptr %80, align 8, !tbaa !40
  %82 = getelementptr inbounds nuw i8, ptr %2, i64 56
  %83 = load i32, ptr %82, align 8, !tbaa !47
  %84 = sext i32 %83 to i64
  %85 = mul i64 %81, %84
  %86 = icmp eq i64 %85, 0
  br i1 %86, label %_ZNK4ncnn3Mat5emptyEv.exit.thread, label %106

87:                                               ; preds = %26
  %88 = landingpad { ptr, i32 }
          cleanup
  %89 = load ptr, ptr %.phi.trans.insert, align 8, !tbaa !34
  %.not.i = icmp eq ptr %89, null
  br i1 %.not.i, label %_ZN4ncnn3MatD2Ev.exit9, label %90

90:                                               ; preds = %87
  %91 = atomicrmw add ptr %89, i32 -1 acq_rel, align 4
  %92 = icmp eq i32 %91, 1
  br i1 %92, label %93, label %_ZN4ncnn3MatD2Ev.exit9

93:                                               ; preds = %90
  %94 = getelementptr inbounds nuw i8, ptr %5, i64 32
  %95 = load ptr, ptr %94, align 8, !tbaa !36
  %.not3.i = icmp eq ptr %95, null
  %96 = load ptr, ptr %5, align 8, !tbaa !37
  br i1 %.not3.i, label %101, label %97

97:                                               ; preds = %93
  %98 = load ptr, ptr %95, align 8, !tbaa !38
  %99 = getelementptr inbounds nuw i8, ptr %98, i64 24
  %100 = load ptr, ptr %99, align 8
  invoke void %100(ptr noundef nonnull align 8 dereferenceable(8) %95, ptr noundef %96)
          to label %_ZN4ncnn3MatD2Ev.exit9 unwind label %103

101:                                              ; preds = %93
  %.not.i15 = icmp eq ptr %96, null
  br i1 %.not.i15, label %_ZN4ncnn3MatD2Ev.exit9, label %102

102:                                              ; preds = %101
  call void @free(ptr noundef nonnull %96) #18
  br label %_ZN4ncnn3MatD2Ev.exit9

103:                                              ; preds = %97
  %104 = landingpad { ptr, i32 }
          catch ptr null
  %105 = extractvalue { ptr, i32 } %104, 0
  call void @__clang_call_terminate(ptr %105) #20
  unreachable

_ZN4ncnn3MatD2Ev.exit9:                           ; preds = %90, %87, %97, %101, %102
  call void @llvm.lifetime.end.p0(i64 72, ptr nonnull %5) #18
  resume { ptr, i32 } %88

106:                                              ; preds = %_ZNK4ncnn3Mat5emptyEv.exit
  %107 = load ptr, ptr %0, align 8, !tbaa !38
  %108 = getelementptr inbounds nuw i8, ptr %107, i64 72
  %109 = load ptr, ptr %108, align 8
  %110 = call noundef i32 %109(ptr noundef nonnull align 8 dereferenceable(208) %0, ptr noundef nonnull align 8 dereferenceable(72) %2, ptr noundef nonnull align 8 dereferenceable(64) %3)
  br label %_ZNK4ncnn3Mat5emptyEv.exit.thread

_ZNK4ncnn3Mat5emptyEv.exit.thread:                ; preds = %_ZN4ncnn3MatD2Ev.exit, %_ZNK4ncnn3Mat5emptyEv.exit, %4, %106
  %.0 = phi i32 [ %110, %106 ], [ -1, %4 ], [ -100, %_ZNK4ncnn3Mat5emptyEv.exit ], [ -100, %_ZN4ncnn3MatD2Ev.exit ]
  ret i32 %.0
}